target datalayout = "e-m:e-p270:32:32-p271:32:32-p272:64:64-i64:64-i128:128-f80:128-n8:16:32:64-S128"
target triple = "x86_64-pc-linux-gnu"

%struct.PgStat_EntryRef = type { ptr, ptr, i32, ptr, %struct.dlist_node }
%struct.dlist_node = type { ptr, ptr }
%struct.PgStat_StatDBEntry = type { i64, i64, i64, i64, i64, i64, i64, i64, i64, i64, i64, i64, i64, i64, i64, i64, i64, i64, i64, i64, i64, i64, i64, i64, i64, i64, i64, i64, i64, i64, i64, i64, i64 }

@pgstat_track_counts = external global i8, align 1
@MyDatabaseId = external global i32, align 4

; Function Attrs: nounwind uwtable
define dso_local ptr @pgstat_prep_database_pending(i32 noundef %0) #0 {
  %2 = alloca i32, align 4
  %3 = alloca ptr, align 8
  store i32 %0, ptr %2, align 4
  call void @llvm.lifetime.start.p0(i64 8, ptr %3) #4
  %4 = load i32, ptr %2, align 4
  %5 = call ptr @pgstat_prep_pending_entry(i32 noundef 1, i32 noundef %4, i64 noundef 0, ptr noundef null)
  store ptr %5, ptr %3, align 8
  %6 = load ptr, ptr %3, align 8
  %7 = getelementptr inbounds nuw %struct.PgStat_EntryRef, ptr %6, i32 0, i32 3
  %8 = load ptr, ptr %7, align 8
  call void @llvm.lifetime.end.p0(i64 8, ptr %3) #4
  ret ptr %8
}

; Function Attrs: nounwind uwtable
define dso_local void @pgstat_report_deadlock() #0 {
  %1 = alloca ptr, align 8
  %2 = alloca i32, align 4
  call void @llvm.lifetime.start.p0(i64 8, ptr %1) #4
  %3 = load i8, ptr @pgstat_track_counts, align 1, !range !4, !noundef !5
  %4 = trunc i8 %3 to i1
  br i1 %4, label %6, label %5

5:                                                ; preds = %0
  store i32 1, ptr %2, align 4
  br label %13

6:                                                ; preds = %0
  %7 = load i32, ptr @MyDatabaseId, align 4
  %8 = call ptr @pgstat_prep_database_pending(i32 noundef %7)
  store ptr %8, ptr %1, align 8
  %9 = load ptr, ptr %1, align 8
  %10 = getelementptr inbounds nuw %struct.PgStat_StatDBEntry, ptr %9, i32 0, i32 18
  %11 = load i64, ptr %10, align 8
  %12 = add i64 %11, 1
  store i64 %12, ptr %10, align 8
  store i32 0, ptr %2, align 4
  br label %13

13:                                               ; preds = %6, %5
  call void @llvm.lifetime.end.p0(i64 8, ptr %1) #4
  %14 = load i32, ptr %2, align 4
  switch i32 %14, label %16 [
    i32 0, label %15
    i32 1, label %15
  ]

15:                                               ; preds = %13, %13
  ret void

16:                                               ; preds = %13
  unreachable
}