; Function Attrs: nounwind uwtable
define dso_local void @pgstat_report_deadlock() local_unnamed_addr #0 {
  %1 = load i8, ptr @pgstat_track_counts, align 1, !range !4, !noundef !5
  %2 = trunc nuw i8 %1 to i1
  br i1 %2, label %3, label %11

3:                                                ; preds = %0
  %4 = load i32, ptr @MyDatabaseId, align 4
  %5 = tail call ptr @pgstat_prep_pending_entry(i32 noundef 1, i32 noundef %4, i64 noundef 0, ptr noundef null) #6
  %6 = getelementptr inbounds nuw i8, ptr %5, i64 24
  %7 = load ptr, ptr %6, align 8
  %8 = getelementptr inbounds nuw i8, ptr %7, i64 144
  %9 = load i64, ptr %8, align 8
  %10 = add i64 %9, 1
  store i64 %10, ptr %8, align 8
  br label %11

11:                                               ; preds = %0, %3
  ret void
}